target datalayout = "e-m:e-p270:32:32-p271:32:32-p272:64:64-i64:64-i128:128-f80:128-n8:16:32:64-S128"
target triple = "x86_64-unknown-linux-gnu"

@.str.14 = private unnamed_addr constant [8 x i8] c"INITIAL\00", align 1
@.str.15 = private unnamed_addr constant [5 x i8] c"IDLE\00", align 1
@.str.18 = private unnamed_addr constant [15 x i8] c"PUSHED_TO_PIPE\00", align 1
@.str.19 = private unnamed_addr constant [16 x i8] c"FORWARDED_BATCH\00", align 1
@.str.20 = private unnamed_addr constant [16 x i8] c"BATCH_COMPLETED\00", align 1
@.str.21 = private unnamed_addr constant [10 x i8] c"CANCELLED\00", align 1
@.str.24 = private unnamed_addr constant [8 x i8] c"UNKNOWN\00", align 1
@.str.43 = private unnamed_addr constant [24 x i8] c"FORWARDED_BATCH_NO_PIPE\00", align 1
@.str.44 = private unnamed_addr constant [24 x i8] c"BATCH_COMPLETED_NO_PIPE\00", align 1
@.str.45 = private unnamed_addr constant [17 x i8] c"PULLED_FROM_PIPE\00", align 1
@.str.46 = private unnamed_addr constant [28 x i8] c"CANCELLED_WHILST_FORWARDING\00", align 1
@.str.47 = private unnamed_addr constant [36 x i8] c"CANCELLED_WHILST_FORWARDING_NO_PIPE\00", align 1
@.str.48 = private unnamed_addr constant [30 x i8] c"BATCH_COMPLETED_BUT_CANCELLED\00", align 1
@.str.49 = private unnamed_addr constant [38 x i8] c"BATCH_COMPLETED_BUT_CANCELLED_NO_PIPE\00", align 1
@.str.50 = private unnamed_addr constant [22 x i8] c"CANCELLED_WHILST_IDLE\00", align 1
@.str.51 = private unnamed_addr constant [33 x i8] c"COMPLETED_WHILE_PULLED_FROM_PIPE\00", align 1
@.str.52 = private unnamed_addr constant [31 x i8] c"COMPLETED_WHILE_PUSHED_TO_PIPE\00", align 1
@.str.53 = private unnamed_addr constant [32 x i8] c"COMPLETED_WHILE_BATCH_COMPLETED\00", align 1

; Function Attrs: mustprogress nounwind uwtable
define noundef ptr @_ZN9grpc_core21promise_filter_detail12BaseCallData14ReceiveMessage11StateStringENS2_5StateE(i8 noundef zeroext %state) #5 align 2 {
entry:
  %retval = alloca ptr, align 8
  %state.addr = alloca i8, align 1
  store i8 %state, ptr %state.addr, align 1
  %0 = load i8, ptr %state.addr, align 1
  switch i8 %0, label %sw.epilog [
    i8 0, label %sw.bb
    i8 1, label %sw.bb1
    i8 2, label %sw.bb2
    i8 3, label %sw.bb3
    i8 4, label %sw.bb4
    i8 5, label %sw.bb5
    i8 6, label %sw.bb6
    i8 7, label %sw.bb7
    i8 8, label %sw.bb8
    i8 10, label %sw.bb9
    i8 11, label %sw.bb10
    i8 12, label %sw.bb11
    i8 13, label %sw.bb12
    i8 9, label %sw.bb13
    i8 15, label %sw.bb14
    i8 14, label %sw.bb15
    i8 16, label %sw.bb16
  ]

sw.bb:                                            ; preds = %entry
  store ptr @.str.14, ptr %retval, align 8
  br label %return

sw.bb1:                                           ; preds = %entry
  store ptr @.str.15, ptr %retval, align 8
  br label %return

sw.bb2:                                           ; preds = %entry
  store ptr @.str.43, ptr %retval, align 8
  br label %return

sw.bb3:                                           ; preds = %entry
  store ptr @.str.19, ptr %retval, align 8
  br label %return

sw.bb4:                                           ; preds = %entry
  store ptr @.str.44, ptr %retval, align 8
  br label %return

sw.bb5:                                           ; preds = %entry
  store ptr @.str.20, ptr %retval, align 8
  br label %return

sw.bb6:                                           ; preds = %entry
  store ptr @.str.18, ptr %retval, align 8
  br label %return

sw.bb7:                                           ; preds = %entry
  store ptr @.str.45, ptr %retval, align 8
  br label %return

sw.bb8:                                           ; preds = %entry
  store ptr @.str.21, ptr %retval, align 8
  br label %return

sw.bb9:                                           ; preds = %entry
  store ptr @.str.46, ptr %retval, align 8
  br label %return

sw.bb10:                                          ; preds = %entry
  store ptr @.str.47, ptr %retval, align 8
  br label %return

sw.bb11:                                          ; preds = %entry
  store ptr @.str.48, ptr %retval, align 8
  br label %return

sw.bb12:                                          ; preds = %entry
  store ptr @.str.49, ptr %retval, align 8
  br label %return

sw.bb13:                                          ; preds = %entry
  store ptr @.str.50, ptr %retval, align 8
  br label %return

sw.bb14:                                          ; preds = %entry
  store ptr @.str.51, ptr %retval, align 8
  br label %return

sw.bb15:                                          ; preds = %entry
  store ptr @.str.52, ptr %retval, align 8
  br label %return

sw.bb16:                                          ; preds = %entry
  store ptr @.str.53, ptr %retval, align 8
  br label %return

sw.epilog:                                        ; preds = %entry
  store ptr @.str.24, ptr %retval, align 8
  br label %return

return:                                           ; preds = %sw.epilog, %sw.bb16, %sw.bb15, %sw.bb14, %sw.bb13, %sw.bb12, %sw.bb11, %sw.bb10, %sw.bb9, %sw.bb8, %sw.bb7, %sw.bb6, %sw.bb5, %sw.bb4, %sw.bb3, %sw.bb2, %sw.bb1, %sw.bb
  %1 = load ptr, ptr %retval, align 8
  ret ptr %1
}